(dp0
I0
(dp1
S'lots'
p2
(lp3
I0
aI2
asS'neighbors'
p4
(lp5
I4
aI3
aI1
asS'street'
p6
I0
sS'coords'
p7
(I1
I1
tp8
sS'number'
p9
I100
ssI1
(dp10
g2
(lp11
I0
aI1
asg4
(lp12
I5
aI0
aI2
asg6
I1
sg7
(I1
I1
tp13
sg9
I100
ssI2
(dp14
g2
(lp15
I1
aI3
aI8
aI10
asg4
(lp16
I6
aI3
aI5
aI7
aI1
asg6
I8
sg7
(I2
I1
tp17
sg9
I100
ssI3
(dp18
g2
(lp19
I4
aI5
aI2
aI3
asg4
(lp20
I7
aI4
aI2
aI6
aI0
asg6
I2
sg7
(I1
I2
tp21
sg9
I100
ssI4
(dp22
g2
(lp23
I4
aI6
asg4
(lp24
I12
aI0
aI3
aI11
asg6
I0
sg7
(I1
I2
tp25
sg9
I200
ssI5
(dp26
g2
(lp27
I8
aI9
asg4
(lp28
I21
aI1
aI2
aI18
asg6
I1
sg7
(I2
I1
tp29
sg9
I200
ssI6
(dp30
g2
(lp31
I12
aI14
aI5
aI7
asg4
(lp32
I14
aI2
aI11
aI15
aI7
aI3
asg6
I8
sg7
(I2
I2
tp33
sg9
I200
ssI7
(dp34
g2
(lp35
I10
aI11
aI12
aI13
asg4
(lp36
I3
aI23
aI18
aI6
aI22
aI2
asg6
I2
sg7
(I2
I2
tp37
sg9
I200
ssI11
(dp38
g2
(lp39
I6
aI7
aI16
aI17
asg4
(lp40
I15
aI6
aI4
aI14
aI12
asg6
I3
sg7
(I1
I3
tp41
sg9
I100
ssI12
(dp42
g2
(lp43
I16
aI18
asg4
(lp44
I4
aI36
aI35
aI11
asg6
I0
sg7
(I1
I3
tp45
sg9
I300
ssI14
(dp46
g2
(lp47
I24
aI26
aI17
aI19
asg4
(lp48
I38
aI6
aI39
aI35
aI15
aI11
asg6
I8
sg7
(I2
I3
tp49
sg9
I300
ssI15
(dp50
g2
(lp51
I24
aI25
aI14
aI15
asg4
(lp52
I11
aI31
aI22
aI6
aI14
aI30
asg6
I3
sg7
(I2
I3
tp53
sg9
I200
ssI18
(dp54
g2
(lp55
I32
aI34
aI9
aI11
asg4
(lp56
I22
aI7
aI5
aI21
aI23
asg6
I9
sg7
(I3
I1
tp57
sg9
I100
ssI21
(dp58
g2
(lp59
I32
aI33
asg4
(lp60
I69
aI5
aI66
aI18
asg6
I1
sg7
(I3
I1
tp61
sg9
I300
ssI22
(dp62
g2
(lp63
I36
aI38
aI13
aI15
asg4
(lp64
I18
aI30
aI15
aI7
aI31
aI23
asg6
I9
sg7
(I3
I2
tp65
sg9
I200
ssI23
(dp66
g2
(lp67
I36
aI37
aI34
aI35
asg4
(lp68
I71
aI7
aI66
aI70
aI22
aI18
asg6
I2
sg7
(I3
I2
tp69
sg9
I300
ssI30
(dp70
g2
(lp71
I25
aI27
aI48
aI50
asg4
(lp72
I54
aI22
aI39
aI15
aI55
aI31
asg6
I9
sg7
(I3
I3
tp73
sg9
I300
ssI31
(dp74
g2
(lp75
I48
aI49
aI38
aI39
asg4
(lp76
I15
aI79
aI22
aI30
aI78
aI70
asg6
I3
sg7
(I3
I3
tp77
sg9
I300
ssI35
(dp78
g2
(lp79
I20
aI21
aI18
aI19
asg4
(lp80
I39
aI36
aI14
aI38
aI12
asg6
I4
sg7
(I1
I4
tp81
sg9
I100
ssI36
(dp82
g2
(lp83
I20
aI22
asg4
(lp84
I44
aI12
aI35
aI43
asg6
I0
sg7
(I1
I4
tp85
sg9
I400
ssI38
(dp86
g2
(lp87
I21
aI23
aI28
aI30
asg4
(lp88
I14
aI46
aI47
aI39
aI43
aI35
asg6
I8
sg7
(I2
I4
tp89
sg9
I400
ssI39
(dp90
g2
(lp91
I28
aI29
aI26
aI27
asg4
(lp92
I55
aI35
aI38
aI30
aI14
aI54
asg6
I4
sg7
(I2
I4
tp93
sg9
I200
ssI43
(dp94
g2
(lp95
I22
aI23
aI65
aI70
asg4
(lp96
I47
aI38
aI36
aI44
asg6
I5
sg7
(I1
I5
tp97
sg9
I100
ssI44
(dp98
g2
(lp99
I65
aI69
asg4
(lp100
I132
aI36
aI43
asg6
I0
sg7
(I1
I5
tp101
sg9
I500
ssI46
(dp102
g2
(lp103
sg4
(lp104
I38
asg6
I8
sg7
(I2
I5
tp105
sg9
I500
ssI47
(dp106
g2
(lp107
I66
aI74
aI30
aI31
asg4
(lp108
I43
aI63
aI38
aI62
aI54
asg6
I5
sg7
(I2
I5
tp109
sg9
I200
ssI54
(dp110
g2
(lp111
I29
aI31
aI52
aI54
asg4
(lp112
I62
aI30
aI55
aI47
aI39
aI63
asg6
I9
sg7
(I3
I4
tp113
sg9
I400
ssI55
(dp114
g2
(lp115
I50
aI51
aI52
aI53
asg4
(lp116
I103
aI39
aI54
aI78
aI30
aI102
asg6
I4
sg7
(I3
I4
tp117
sg9
I300
ssI62
(dp118
g2
(lp119
I90
aI92
aI66
aI71
asg4
(lp120
I54
aI134
aI155
aI63
aI47
asg6
I9
sg7
(I3
I5
tp121
sg9
I500
ssI63
(dp122
g2
(lp123
I54
aI55
aI90
aI91
asg4
(lp124
I111
aI47
aI62
aI110
aI102
aI54
asg6
I5
sg7
(I3
I5
tp125
sg9
I300
ssI66
(dp126
g2
(lp127
I33
aI35
aI40
aI42
asg4
(lp128
I70
aI23
aI71
aI21
aI69
asg6
I11
sg7
(I4
I1
tp129
sg9
I100
ssI69
(dp130
g2
(lp131
I40
aI41
asg4
(lp132
I85
aI21
aI82
aI66
asg6
I1
sg7
(I4
I1
tp133
sg9
I400
ssI70
(dp134
g2
(lp135
I44
aI46
aI37
aI39
asg4
(lp136
I66
aI78
aI79
aI23
aI71
aI31
asg6
I11
sg7
(I4
I2
tp137
sg9
I200
ssI71
(dp138
g2
(lp139
I42
aI43
aI44
aI45
asg4
(lp140
I23
aI87
aI86
aI70
aI66
aI82
asg6
I2
sg7
(I4
I2
tp141
sg9
I400
ssI78
(dp142
g2
(lp143
I56
aI58
aI49
aI51
asg4
(lp144
I70
aI102
aI55
aI79
aI31
aI103
asg6
I11
sg7
(I4
I3
tp145
sg9
I300
ssI79
(dp146
g2
(lp147
I56
aI57
aI46
aI47
asg4
(lp148
I31
aI95
aI86
aI70
aI78
aI94
asg6
I3
sg7
(I4
I3
tp149
sg9
I400
ssI82
(dp150
g2
(lp151
I119
aI121
aI41
aI43
asg4
(lp152
I86
aI69
aI85
aI87
aI71
asg6
I12
sg7
(I5
I1
tp153
sg9
I100
ssI85
(dp154
g2
(lp155
I119
aI120
asg4
(lp156
I201
aI69
aI82
aI198
asg6
I1
sg7
(I5
I1
tp157
sg9
I500
ssI86
(dp158
g2
(lp159
I123
aI125
aI45
aI47
asg4
(lp160
I94
aI82
aI79
aI87
aI71
aI95
asg6
I12
sg7
(I5
I2
tp161
sg9
I200
ssI87
(dp162
g2
(lp163
I121
aI122
aI123
aI124
asg4
(lp164
I71
aI203
aI86
aI198
aI202
aI82
asg6
I2
sg7
(I5
I2
tp165
sg9
I500
ssI94
(dp166
g2
(lp167
I135
aI137
aI57
aI59
asg4
(lp168
I118
aI86
aI103
aI95
aI119
aI79
asg6
I12
sg7
(I5
I3
tp169
sg9
I300
ssI95
(dp170
g2
(lp171
I135
aI136
aI125
aI126
asg4
(lp172
I211
aI79
aI86
aI210
aI94
aI202
asg6
I3
sg7
(I5
I3
tp173
sg9
I500
ssI102
(dp174
g2
(lp175
I53
aI55
aI60
aI62
asg4
(lp176
I110
aI78
aI111
aI103
aI63
aI55
asg6
I11
sg7
(I4
I4
tp177
sg9
I400
ssI103
(dp178
g2
(lp179
I58
aI59
aI60
aI61
asg4
(lp180
I119
aI55
aI94
aI102
aI118
aI78
asg6
I4
sg7
(I4
I4
tp181
sg9
I400
ssI110
(dp182
g2
(lp183
I98
aI100
aI91
aI93
asg4
(lp184
I158
aI102
aI159
aI63
aI111
aI155
asg6
I11
sg7
(I4
I5
tp185
sg9
I500
ssI111
(dp186
g2
(lp187
I62
aI63
aI98
aI99
asg4
(lp188
I127
aI63
aI102
aI126
aI118
aI110
asg6
I5
sg7
(I4
I5
tp189
sg9
I400
ssI118
(dp190
g2
(lp191
I61
aI63
aI139
aI141
asg4
(lp192
I126
aI94
aI127
aI119
aI111
aI103
asg6
I12
sg7
(I5
I4
tp193
sg9
I400
ssI119
(dp194
g2
(lp195
I137
aI138
aI139
aI140
asg4
(lp196
I235
aI103
aI118
aI234
aI94
aI210
asg6
I4
sg7
(I5
I4
tp197
sg9
I500
ssI126
(dp198
g2
(lp199
I99
aI101
aI177
aI179
asg4
(lp200
I174
aI118
aI127
aI111
aI159
aI175
asg6
I12
sg7
(I5
I5
tp201
sg9
I500
ssI127
(dp202
g2
(lp203
I141
aI142
aI177
aI178
asg4
(lp204
I111
aI243
aI126
aI118
aI242
aI234
asg6
I5
sg7
(I5
I5
tp205
sg9
I500
ssI131
(dp206
g2
(lp207
I67
aI72
aI78
aI83
asg4
(lp208
I135
aI132
aI136
asg6
I6
sg7
(I1
I7
tp209
sg9
I100
ssI132
(dp210
g2
(lp211
I67
aI73
asg4
(lp212
I44
aI136
aI131
asg6
I0
sg7
(I1
I6
tp213
sg9
I600
ssI134
(dp214
g2
(lp215
I94
aI96
aI68
aI75
asg4
(lp216
I138
aI62
aI155
aI139
aI135
asg6
I9
sg7
(I3
I6
tp217
sg9
I600
ssI135
(dp218
g2
(lp219
I79
aI87
aI68
aI76
asg4
(lp220
I139
aI131
aI134
aI138
asg6
I6
sg7
(I2
I7
tp221
sg9
I200
ssI136
(dp222
g2
(lp223
I78
aI82
asg4
(lp224
I144
aI132
aI131
asg6
I0
sg7
(I1
I7
tp225
sg9
I700
ssI138
(dp226
g2
(lp227
I107
aI111
aI79
aI84
asg4
(lp228
I146
aI134
aI139
aI135
asg6
I9
sg7
(I3
I7
tp229
sg9
I700
ssI139
(dp230
g2
(lp231
I107
aI112
aI96
aI97
asg4
(lp232
I135
aI167
aI134
aI158
aI138
asg6
I6
sg7
(I3
I7
tp233
sg9
I300
ssI143
(dp234
g2
(lp235
I80
aI85
asg4
(lp236
I147
aI144
asg6
I7
sg7
(I1
I9
tp237
sg9
I100
ssI144
(dp238
g2
(lp239
I86
asg4
(lp240
I148
aI136
aI143
asg6
I0
sg7
(I1
I8
tp241
sg9
I800
ssI146
(dp242
g2
(lp243
I81
aI88
aI115
asg4
(lp244
I138
aI150
aI147
aI151
asg6
I9
sg7
(I3
I8
tp245
sg9
I800
ssI147
(dp246
g2
(lp247
I81
aI89
asg4
(lp248
I151
aI143
aI146
asg6
I7
sg7
(I2
I9
tp249
sg9
I200
ssI148
(dp250
g2
(lp251
sg4
(lp252
I144
asg6
I0
sg7
(I1
I9
tp253
sg9
I900
ssI150
(dp254
g2
(lp255
sg4
(lp256
I146
asg6
I9
sg7
(I3
I9
tp257
sg9
I900
ssI151
(dp258
g2
(lp259
I109
aI114
asg4
(lp260
I191
aI147
aI146
asg6
I7
sg7
(I3
I9
tp261
sg9
I300
ssI155
(dp262
g2
(lp263
I92
aI93
aI94
aI95
asg4
(lp264
I159
aI134
aI62
aI110
aI158
asg6
I10
sg7
(I3
I6
tp265
sg9
I300
ssI158
(dp266
g2
(lp267
I95
aI97
aI102
aI104
asg4
(lp268
I110
aI166
aI167
aI139
aI159
aI155
asg6
I11
sg7
(I4
I6
tp269
sg9
I600
ssI159
(dp270
g2
(lp271
I100
aI101
aI102
aI103
asg4
(lp272
I175
aI155
aI110
aI126
aI174
aI158
asg6
I10
sg7
(I4
I6
tp273
sg9
I400
ssI166
(dp274
g2
(lp275
sg4
(lp276
I158
asg6
I11
sg7
(I4
I7
tp277
sg9
I700
ssI167
(dp278
g2
(lp279
I108
aI116
aI104
aI105
asg4
(lp280
I139
aI183
aI182
aI174
aI158
asg6
I6
sg7
(I4
I7
tp281
sg9
I400
ssI174
(dp282
g2
(lp283
I181
aI183
aI103
aI105
asg4
(lp284
I126
aI182
aI183
aI167
aI175
aI159
asg6
I12
sg7
(I5
I6
tp285
sg9
I600
ssI175
(dp286
g2
(lp287
I181
aI182
aI179
aI180
asg4
(lp288
I159
aI291
aI242
aI174
aI290
aI126
asg6
I10
sg7
(I5
I6
tp289
sg9
I500
ssI182
(dp290
g2
(lp291
I108
aI113
aI194
aI198
asg4
(lp292
I174
aI190
aI183
aI167
asg6
I12
sg7
(I5
I7
tp293
sg9
I700
ssI183
(dp294
g2
(lp295
I194
aI199
aI183
aI184
asg4
(lp296
I167
aI299
aI182
aI174
aI290
asg6
I6
sg7
(I5
I7
tp297
sg9
I500
ssI190
(dp298
g2
(lp299
I110
aI117
aI202
asg4
(lp300
I194
aI182
aI195
aI191
asg6
I12
sg7
(I5
I8
tp301
sg9
I800
ssI191
(dp302
g2
(lp303
I110
aI118
asg4
(lp304
I195
aI151
aI190
asg6
I7
sg7
(I4
I9
tp305
sg9
I400
ssI194
(dp306
g2
(lp307
sg4
(lp308
I190
asg6
I12
sg7
(I5
I9
tp309
sg9
I900
ssI195
(dp310
g2
(lp311
I196
aI201
asg4
(lp312
I323
aI191
aI190
asg6
I7
sg7
(I5
I9
tp313
sg9
I500
ssI198
(dp314
g2
(lp315
I127
aI129
aI120
aI122
asg4
(lp316
I202
aI203
aI87
aI85
aI201
asg6
I13
sg7
(I6
I1
tp317
sg9
I100
ssI201
(dp318
g2
(lp319
I127
aI128
asg4
(lp320
I85
aI217
aI198
aI214
asg6
I1
sg7
(I6
I1
tp321
sg9
I600
ssI202
(dp322
g2
(lp323
I131
aI133
aI124
aI126
asg4
(lp324
I210
aI198
aI87
aI211
aI95
aI203
asg6
I13
sg7
(I6
I2
tp325
sg9
I200
ssI203
(dp326
g2
(lp327
I129
aI130
aI131
aI132
asg4
(lp328
I87
aI219
aI198
aI214
aI218
aI202
asg6
I2
sg7
(I6
I2
tp329
sg9
I600
ssI210
(dp330
g2
(lp331
I136
aI138
aI143
aI145
asg4
(lp332
I234
aI202
aI235
aI95
aI119
aI211
asg6
I13
sg7
(I6
I3
tp333
sg9
I300
ssI211
(dp334
g2
(lp335
I133
aI134
aI143
aI144
asg4
(lp336
I227
aI95
aI226
aI218
aI202
aI210
asg6
I3
sg7
(I6
I3
tp337
sg9
I600
ssI214
(dp338
g2
(lp339
I152
aI156
aI128
aI130
asg4
(lp340
I218
aI217
aI203
aI201
asg6
I14
sg7
(I7
I1
tp341
sg9
I100
ssI217
(dp342
g2
(lp343
I152
aI157
asg4
(lp344
I265
aI201
aI214
asg6
I1
sg7
(I7
I1
tp345
sg9
I700
ssI218
(dp346
g2
(lp347
I154
aI160
aI132
aI134
asg4
(lp348
I226
aI214
aI227
aI211
aI203
asg6
I14
sg7
(I7
I2
tp349
sg9
I200
ssI219
(dp350
g2
(lp351
sg4
(lp352
I203
asg6
I2
sg7
(I7
I2
tp353
sg9
I700
ssI226
(dp354
g2
(lp355
I165
aI169
aI144
aI146
asg4
(lp356
I250
aI218
aI235
aI211
aI227
asg6
I14
sg7
(I7
I3
tp357
sg9
I300
ssI227
(dp358
g2
(lp359
I165
aI170
aI154
aI159
asg4
(lp360
I211
aI267
aI218
aI226
asg6
I3
sg7
(I7
I3
tp361
sg9
I700
ssI234
(dp362
g2
(lp363
I147
aI149
aI140
aI142
asg4
(lp364
I210
aI242
aI119
aI127
aI235
aI243
asg6
I13
sg7
(I6
I4
tp365
sg9
I400
ssI235
(dp366
g2
(lp367
I147
aI148
aI145
aI146
asg4
(lp368
I251
aI119
aI226
aI210
aI234
aI250
asg6
I4
sg7
(I6
I4
tp369
sg9
I600
ssI242
(dp370
g2
(lp371
I185
aI187
aI178
aI180
asg4
(lp372
I234
aI290
aI175
aI127
aI243
aI291
asg6
I13
sg7
(I6
I5
tp373
sg9
I500
ssI243
(dp374
g2
(lp375
I185
aI186
aI149
aI150
asg4
(lp376
I259
aI127
aI250
aI242
aI234
aI258
asg6
I5
sg7
(I6
I5
tp377
sg9
I600
ssI250
(dp378
g2
(lp379
I167
aI173
aI148
aI150
asg4
(lp380
I258
aI226
aI243
aI259
aI235
asg6
I14
sg7
(I7
I4
tp381
sg9
I400
ssI251
(dp382
g2
(lp383
sg4
(lp384
I235
asg6
I4
sg7
(I7
I4
tp385
sg9
I700
ssI258
(dp386
g2
(lp387
I186
aI188
aI207
aI211
asg4
(lp388
I250
aI306
aI291
aI259
aI243
asg6
I14
sg7
(I7
I5
tp389
sg9
I500
ssI259
(dp390
g2
(lp391
I207
aI212
aI167
aI172
asg4
(lp392
I279
aI243
aI250
aI258
asg6
I5
sg7
(I7
I5
tp393
sg9
I700
ssI262
(dp394
g2
(lp395
I153
aI158
asg4
(lp396
I266
aI265
asg6
I15
sg7
(I9
I1
tp397
sg9
I100
ssI265
(dp398
g2
(lp399
I161
asg4
(lp400
I269
aI217
aI262
asg6
I1
sg7
(I8
I1
tp401
sg9
I800
ssI266
(dp402
g2
(lp403
I155
aI162
asg4
(lp404
I270
aI262
aI267
asg6
I15
sg7
(I9
I2
tp405
sg9
I200
ssI267
(dp406
g2
(lp407
I174
aI155
aI163
asg4
(lp408
I227
aI271
aI270
aI266
asg6
I3
sg7
(I8
I3
tp409
sg9
I800
ssI269
(dp410
g2
(lp411
sg4
(lp412
I265
asg6
I1
sg7
(I9
I1
tp413
sg9
I900
ssI270
(dp414
g2
(lp415
I166
aI171
asg4
(lp416
I266
aI278
aI267
asg6
I15
sg7
(I9
I3
tp417
sg9
I300
ssI271
(dp418
g2
(lp419
sg4
(lp420
I267
asg6
I3
sg7
(I9
I3
tp421
sg9
I900
ssI278
(dp422
g2
(lp423
I168
aI175
asg4
(lp424
I282
aI270
aI279
asg6
I15
sg7
(I9
I4
tp425
sg9
I400
ssI279
(dp426
g2
(lp427
I168
aI176
aI216
asg4
(lp428
I283
aI259
aI282
aI278
asg6
I5
sg7
(I8
I5
tp429
sg9
I800
ssI282
(dp430
g2
(lp431
I208
aI213
asg4
(lp432
I334
aI278
aI279
asg6
I15
sg7
(I9
I5
tp433
sg9
I500
ssI283
(dp434
g2
(lp435
sg4
(lp436
I279
asg6
I5
sg7
(I9
I5
tp437
sg9
I900
ssI290
(dp438
g2
(lp439
I189
aI191
aI182
aI184
asg4
(lp440
I298
aI242
aI175
aI183
aI299
aI291
asg6
I13
sg7
(I6
I6
tp441
sg9
I600
ssI291
(dp442
g2
(lp443
I187
aI188
aI189
aI190
asg4
(lp444
I175
aI307
aI258
aI290
aI306
aI242
asg6
I10
sg7
(I6
I6
tp445
sg9
I600
ssI298
(dp446
g2
(lp447
sg4
(lp448
I290
asg6
I13
sg7
(I6
I7
tp449
sg9
I700
ssI299
(dp450
g2
(lp451
I195
aI203
aI191
aI192
asg4
(lp452
I183
aI315
aI306
aI290
aI314
asg6
I6
sg7
(I6
I7
tp453
sg9
I600
ssI306
(dp454
g2
(lp455
I209
aI215
aI190
aI192
asg4
(lp456
I258
aI314
aI299
aI291
aI315
asg6
I14
sg7
(I7
I6
tp457
sg9
I600
ssI307
(dp458
g2
(lp459
sg4
(lp460
I291
asg6
I10
sg7
(I7
I6
tp461
sg9
I700
ssI314
(dp462
g2
(lp463
I195
aI200
aI220
aI224
asg4
(lp464
I322
aI306
aI315
aI299
asg6
I14
sg7
(I7
I7
tp465
sg9
I700
ssI315
(dp466
g2
(lp467
I209
aI214
aI220
aI225
asg4
(lp468
I299
aI335
aI306
aI314
asg6
I6
sg7
(I7
I7
tp469
sg9
I700
ssI322
(dp470
g2
(lp471
I228
aI197
aI204
asg4
(lp472
I314
aI326
aI327
aI323
asg6
I14
sg7
(I7
I8
tp473
sg9
I800
ssI323
(dp474
g2
(lp475
I197
aI205
asg4
(lp476
I195
aI327
aI322
asg6
I7
sg7
(I6
I9
tp477
sg9
I600
ssI326
(dp478
g2
(lp479
sg4
(lp480
I322
asg6
I14
sg7
(I7
I9
tp481
sg9
I900
ssI327
(dp482
g2
(lp483
I222
aI227
asg4
(lp484
I347
aI323
aI322
asg6
I7
sg7
(I7
I9
tp485
sg9
I700
ssI334
(dp486
g2
(lp487
I210
aI217
asg4
(lp488
I282
aI338
aI335
asg6
I15
sg7
(I9
I6
tp489
sg9
I600
ssI335
(dp490
g2
(lp491
I210
aI218
aI229
asg4
(lp492
I315
aI339
aI338
aI334
asg6
I6
sg7
(I8
I7
tp493
sg9
I800
ssI338
(dp494
g2
(lp495
I221
aI226
asg4
(lp496
I346
aI334
aI335
asg6
I15
sg7
(I9
I7
tp497
sg9
I700
ssI339
(dp498
g2
(lp499
sg4
(lp500
I335
asg6
I6
sg7
(I9
I7
tp501
sg9
I900
ssI346
(dp502
g2
(lp503
I223
aI230
asg4
(lp504
I350
aI338
aI347
asg6
I15
sg7
(I9
I8
tp505
sg9
I800
ssI347
(dp506
g2
(lp507
I223
aI231
asg4
(lp508
I351
aI327
aI346
asg6
I7
sg7
(I8
I9
tp509
sg9
I800
ssI350
(dp510
g2
(lp511
sg4
(lp512
I346
asg6
I15
sg7
(I9
I9
tp513
sg9
I900
ssI351
(dp514
g2
(lp515
sg4
(lp516
I347
asg6
I7
sg7
(I9
I9
tp517
sg9
I900
ss.