(dp0
I1
(dp1
S'lot'
p2
I133
sS'address'
p3
S'613 Orme Street'
p4
ssI2
(dp5
g2
I135
sg3
S'316 Gager Avenue'
p6
ssI3
(dp7
g2
I136
sg3
S'556 Orme Street'
p8
ssI4
(dp9
g2
I124
sg3
S'564 2nd Street'
p10
ssI6
(dp11
g2
I132
sg3
S'225 Port Alsworth Avenue'
p12
ssI7
(dp13
g2
I130
sg3
S'637 2nd Street'
p14
ssI8
(dp15
g2
I129
sg3
S'623 2nd Street'
p16
ssI10
(dp17
g2
I123
sg3
S'218 Gager Avenue'
p18
ssI41
(dp19
g2
I156
sg3
S'160 Port Alsworth Avenue'
p20
ssI42
(dp21
g2
I128
sg3
S'664 1st Street'
p22
ssI44
(dp23
g2
I44
sg3
S'226 Hearon Avenue'
p24
ssI45
(dp25
g2
I119
sg3
S'130 Gager Avenue'
p26
ssI47
(dp27
g2
I40
sg3
S'418 1st Street'
p28
ssI48
(dp29
g2
I35
sg3
S'135 Hearon Avenue'
p30
ssI49
(dp31
g2
I34
sg3
S'323 2nd Street'
p32
ssI51
(dp33
g2
I155
sg3
S'847 Orme Street'
p34
ssI52
(dp35
g2
I165
sg3
S'708 Orme Street'
p36
ssI53
(dp37
g2
I154
sg3
S'242 Port Alsworth Avenue'
p38
ssI55
(dp39
g2
I215
sg3
S'630 Port Alsworth Avenue'
p40
ssI57
(dp41
g2
I32
sg3
S'304 1st Street'
p42
ssI58
(dp43
g2
I33
sg3
S'117 Hearon Avenue'
p44
ssI59
(dp45
g2
I8
sg3
S'106 Darien Avenue'
p46
ssI61
(dp47
g2
I59
sg3
S'353 Gager Avenue'
p48
ssI62
(dp49
g2
I46
sg3
S'254 Hearon Avenue'
p50
ssI64
(dp51
g2
I49
sg3
S'303 Hearon Avenue'
p52
ssI65
(dp53
g2
I51
sg3
S'351 Hearon Avenue'
p54
ssI66
(dp55
g2
I58
sg3
S'402 4th Street'
p56
ssI67
(dp57
g2
I50
sg3
S'327 4th Street'
p58
ssI69
(dp59
g2
I138
sg3
S'339 Gallup Avenue'
p60
ssI70
(dp61
g2
I140
sg3
S'431 Gallup Avenue'
p62
ssI72
(dp63
g2
I145
sg3
S'613 4th Street'
p64
ssI73
(dp65
g2
I149
sg3
S'621 5th Street'
p66
ssI74
(dp67
g2
I134
sg3
S'249 Port Alsworth Avenue'
p68
ssI76
(dp69
g2
I141
sg3
S'456 Gager Avenue'
p70
ssI77
(dp71
g2
I63
sg3
S'463 Gager Avenue'
p72
ssI78
(dp73
g2
I61
sg3
S'423 Gager Avenue'
p74
ssI80
(dp75
g2
I146
sg3
S'359 Port Alsworth Avenue'
p76
ssI81
(dp77
g2
I173
sg3
S'408 Port Alsworth Avenue'
p78
ssI82
(dp79
g2
I148
sg3
S'409 Port Alsworth Avenue'
p80
ssI83
(dp81
g2
I167
sg3
S'454 Port Alsworth Avenue'
p82
ssI85
(dp83
g2
I159
sg3
S'765 Orme Street'
p84
ssI86
(dp85
g2
I147
sg3
S'426 Gallup Avenue'
p86
ssI87
(dp87
g2
I160
sg3
S'212 Port Alsworth Avenue'
p88
ssI89
(dp89
g2
I174
sg3
S'828 Orme Street'
p90
ssI90
(dp91
g2
I163
sg3
S'819 Orme Street'
p92
ssI91
(dp93
g2
I171
sg3
S'337 Brownley Avenue'
p94
ssI92
(dp95
g2
I166
sg3
S'302 Brownley Avenue'
p96
ssI93
(dp97
g2
I162
sg3
S'229 Brownley Avenue'
p98
ssI94
(dp99
g2
I152
sg3
S'726 1st Street'
p100
ssI96
(dp101
g2
I39
sg3
S'363 Orme Street'
p102
ssI97
(dp103
g2
I12
sg3
S'230 Darien Avenue'
p104
ssI98
(dp105
g2
I36
sg3
S'308 2nd Street'
p106
ssI99
(dp107
g2
I9
sg3
S'131 Bayou La Batre Avenue'
p108
ssI100
(dp109
g2
I48
sg3
S'310 Orme Street'
p110
ssI101
(dp111
g2
I11
sg3
S'153 Bayou La Batre Avenue'
p112
ssI103
(dp113
g2
I53
sg3
S'332 4th Street'
p114
ssI104
(dp115
g2
I62
sg3
S'429 5th Street'
p116
ssI106
(dp117
g2
I54
sg3
S'327 5th Street'
p118
ssI107
(dp119
g2
I31
sg3
S'443 Bayou La Batre Avenue'
p120
ssI109
(dp121
g2
I27
sg3
S'343 Bayou La Batre Avenue'
p122
ssI110
(dp123
g2
I26
sg3
S'225 4th Street'
p124
ssI111
(dp125
g2
I28
sg3
S'220 4th Street'
p126
ssI112
(dp127
g2
I74
sg3
S'220 5th Street'
p128
ssI114
(dp129
g2
I91
sg3
S'521 Hearon Avenue'
p130
ssI115
(dp131
g2
I90
sg3
S'502 Bayou La Batre Avenue'
p132
ssI117
(dp133
g2
I30
sg3
S'438 Darien Avenue'
p134
ssI118
(dp135
g2
I92
sg3
S'302 6th Street'
p136
ssI119
(dp137
g2
I71
sg3
S'555 Bayou La Batre Avenue'
p138
ssI120
(dp139
g2
I96
sg3
S'303 7th Street'
p140
ssI122
(dp141
g2
I13
sg3
S'202 Bayou La Batre Avenue'
p142
ssI123
(dp143
g2
I15
sg3
S'251 Bayou La Batre Avenue'
p144
ssI124
(dp145
g2
I14
sg3
S'250 Darien Avenue'
p146
ssI125
(dp147
g2
I25
sg3
S'250 Orme Street'
p148
ss.