(dp0
I0
(dp1
S'building'
p2
I-1
sS'blocks'
p3
(lp4
I1
aI0
asS'sidesOfStreet'
p5
(lp6
S'N'
p7
aS'E'
p8
asS'index_of_street_address_will_be_on'
p9
I1
sS'positionsInBlock'
p10
(lp11
I0
aI0
asS'house_numbers'
p12
(lp13
I106
aI124
assI1
(dp14
g2
I-1
sg3
(lp15
I2
aI1
asg5
(lp16
S'W'
p17
ag7
asg9
I0
sg10
(lp18
I0
aI1
asg12
(lp19
I131
aI152
assI2
(dp20
g2
I-1
sg3
(lp21
I0
aI3
asg5
(lp22
g8
aS'S'
p23
asg9
I1
sg10
(lp24
I1
aI0
asg12
(lp25
I142
aI123
assI3
(dp26
g2
I-1
sg3
(lp27
I2
aI3
asg5
(lp28
g17
ag23
asg9
I1
sg10
(lp29
I1
aI1
asg12
(lp30
I157
aI137
assI4
(dp31
g2
I-1
sg3
(lp32
I4
aI3
asg5
(lp33
g8
ag7
asg9
I0
sg10
(lp34
I0
aI0
asg12
(lp35
I228
aI101
assI5
(dp36
g2
I-1
sg3
(lp37
I6
aI3
asg5
(lp38
g17
ag7
asg9
I1
sg10
(lp39
I0
aI1
asg12
(lp40
I209
aI156
assI6
(dp41
g2
I-1
sg3
(lp42
I11
aI4
asg5
(lp43
g23
ag8
asg9
I1
sg10
(lp44
I0
aI1
asg12
(lp45
I109
aI236
assI7
(dp46
g2
I-1
sg3
(lp47
I11
aI6
asg5
(lp48
g23
ag17
asg9
I0
sg10
(lp49
I1
aI1
asg12
(lp50
I145
aI251
assI8
(dp51
g2
I59
sg3
(lp52
I2
aI5
asg5
(lp53
g8
ag7
asg9
I0
sg10
(lp54
I0
aI0
asg12
(lp55
I106
aI216
assI9
(dp56
g2
I99
sg3
(lp57
I5
aI18
asg5
(lp58
g7
ag17
asg9
I1
sg10
(lp59
I1
aI0
asg12
(lp60
I260
aI131
assI10
(dp61
g2
I-1
sg3
(lp62
I7
aI2
asg5
(lp63
g23
ag8
asg9
I1
sg10
(lp64
I0
aI1
asg12
(lp65
I213
aI132
assI11
(dp66
g2
I101
sg3
(lp67
I7
aI18
asg5
(lp68
g23
ag17
asg9
I1
sg10
(lp69
I1
aI1
asg12
(lp70
I245
aI153
assI12
(dp71
g2
I97
sg3
(lp72
I6
aI7
asg5
(lp73
g8
ag7
asg9
I0
sg10
(lp74
I0
aI0
asg12
(lp75
I230
aI226
assI13
(dp76
g2
I122
sg3
(lp77
I22
aI7
asg5
(lp78
g17
ag7
asg9
I0
sg10
(lp79
I0
aI1
asg12
(lp80
I202
aI236
assI14
(dp81
g2
I124
sg3
(lp82
I6
aI15
asg5
(lp83
g8
ag23
asg9
I0
sg10
(lp84
I1
aI0
asg12
(lp85
I250
aI202
assI15
(dp86
g2
I123
sg3
(lp87
I22
aI15
asg5
(lp88
g17
ag23
asg9
I0
sg10
(lp89
I1
aI1
asg12
(lp90
I251
aI253
assI16
(dp91
g2
I-1
sg3
(lp92
I12
aI11
asg5
(lp93
g8
ag7
asg9
I0
sg10
(lp94
I0
aI0
asg12
(lp95
I306
aI104
assI17
(dp96
g2
I-1
sg3
(lp97
I11
aI14
asg5
(lp98
g7
ag17
asg9
I1
sg10
(lp99
I1
aI0
asg12
(lp100
I140
aI325
assI18
(dp101
g2
I-1
sg3
(lp102
I35
aI12
asg5
(lp103
g23
ag8
asg9
I1
sg10
(lp104
I0
aI1
asg12
(lp105
I113
aI356
assI19
(dp106
g2
I-1
sg3
(lp107
I35
aI14
asg5
(lp108
g23
ag17
asg9
I1
sg10
(lp109
I1
aI1
asg12
(lp110
I149
aI347
assI20
(dp111
g2
I-1
sg3
(lp112
I35
aI36
asg5
(lp113
g7
ag8
asg9
I1
sg10
(lp114
I0
aI0
asg12
(lp115
I126
aI418
assI21
(dp116
g2
I-1
sg3
(lp117
I35
aI38
asg5
(lp118
g7
ag17
asg9
I0
sg10
(lp119
I1
aI0
asg12
(lp120
I134
aI407
assI22
(dp121
g2
I-1
sg3
(lp122
I43
aI36
asg5
(lp123
g23
ag8
asg9
I1
sg10
(lp124
I0
aI1
asg12
(lp125
I123
aI442
assI23
(dp126
g2
I-1
sg3
(lp127
I43
aI38
asg5
(lp128
g23
ag17
asg9
I0
sg10
(lp129
I1
aI1
asg12
(lp130
I147
aI463
assI24
(dp131
g2
I-1
sg3
(lp132
I14
aI15
asg5
(lp133
g8
ag7
asg9
I0
sg10
(lp134
I0
aI0
asg12
(lp135
I328
aI204
assI25
(dp136
g2
I125
sg3
(lp137
I30
aI15
asg5
(lp138
g17
ag7
asg9
I1
sg10
(lp139
I0
aI1
asg12
(lp140
I302
aI250
assI26
(dp141
g2
I110
sg3
(lp142
I14
aI39
asg5
(lp143
g8
ag23
asg9
I1
sg10
(lp144
I1
aI0
asg12
(lp145
I336
aI225
assI27
(dp146
g2
I109
sg3
(lp147
I30
aI39
asg5
(lp148
g17
ag23
asg9
I0
sg10
(lp149
I1
aI1
asg12
(lp150
I343
aI233
assI28
(dp151
g2
I111
sg3
(lp152
I39
aI38
asg5
(lp153
g7
ag8
asg9
I0
sg10
(lp154
I0
aI0
asg12
(lp155
I220
aI404
assI29
(dp156
g2
I108
sg3
(lp157
I39
aI54
asg5
(lp158
g7
ag17
asg9
I1
sg10
(lp159
I1
aI0
asg12
(lp160
I242
aI429
assI30
(dp161
g2
I117
sg3
(lp162
I47
aI38
asg5
(lp163
g23
ag8
asg9
I1
sg10
(lp164
I0
aI1
asg12
(lp165
I231
aI438
assI31
(dp166
g2
I107
sg3
(lp167
I54
aI47
asg5
(lp168
g17
ag23
asg9
I0
sg10
(lp169
I1
aI1
asg12
(lp170
I443
aI265
assI32
(dp171
g2
I57
sg3
(lp172
I18
aI21
asg5
(lp173
g8
ag7
asg9
I1
sg10
(lp174
I0
aI0
asg12
(lp175
I124
aI304
assI33
(dp176
g2
I58
sg3
(lp177
I66
aI21
asg5
(lp178
g17
ag7
asg9
I0
sg10
(lp179
I0
aI1
asg12
(lp180
I117
aI350
assI34
(dp181
g2
I49
sg3
(lp182
I18
aI23
asg5
(lp183
g8
ag23
asg9
I1
sg10
(lp184
I1
aI0
asg12
(lp185
I152
aI323
assI35
(dp186
g2
I48
sg3
(lp187
I66
aI23
asg5
(lp188
g17
ag23
asg9
I0
sg10
(lp189
I1
aI1
asg12
(lp190
I135
aI355
assI36
(dp191
g2
I98
sg3
(lp192
I23
aI22
asg5
(lp193
g7
ag8
asg9
I0
sg10
(lp194
I0
aI0
asg12
(lp195
I308
aI208
assI37
(dp196
g2
I95
sg3
(lp197
I23
aI70
asg5
(lp198
g7
ag17
asg9
I1
sg10
(lp199
I1
aI0
asg12
(lp200
I348
aI221
assI38
(dp201
g2
I121
sg3
(lp202
I22
aI31
asg5
(lp203
g8
ag23
asg9
I0
sg10
(lp204
I1
aI0
asg12
(lp205
I242
aI302
assI39
(dp206
g2
I96
sg3
(lp207
I70
aI31
asg5
(lp208
g17
ag23
asg9
I1
sg10
(lp209
I1
aI1
asg12
(lp210
I247
aI363
assI40
(dp211
g2
I47
sg3
(lp212
I69
aI66
asg5
(lp213
g7
ag8
asg9
I0
sg10
(lp214
I0
aI0
asg12
(lp215
I418
aI110
assI41
(dp216
g2
I56
sg3
(lp217
I69
aI82
asg5
(lp218
g7
ag17
asg9
I0
sg10
(lp219
I1
aI0
asg12
(lp220
I450
aI121
assI42
(dp221
g2
I46
sg3
(lp222
I71
aI66
asg5
(lp223
g23
ag8
asg9
I1
sg10
(lp224
I0
aI1
asg12
(lp225
I407
aI162
assI43
(dp226
g2
I43
sg3
(lp227
I71
aI82
asg5
(lp228
g23
ag17
asg9
I1
sg10
(lp229
I1
aI1
asg12
(lp230
I445
aI157
assI44
(dp231
g2
I44
sg3
(lp232
I70
aI71
asg5
(lp233
g8
ag7
asg9
I0
sg10
(lp234
I0
aI0
asg12
(lp235
I226
aI410
assI45
(dp236
g2
I39
sg3
(lp237
I86
aI71
asg5
(lp238
g17
ag7
asg9
I0
sg10
(lp239
I0
aI1
asg12
(lp240
I211
aI446
assI46
(dp241
g2
I62
sg3
(lp242
I70
aI79
asg5
(lp243
g8
ag23
asg9
I0
sg10
(lp244
I1
aI0
asg12
(lp245
I254
aI419
assI47
(dp246
g2
I38
sg3
(lp247
I86
aI79
asg5
(lp248
g17
ag23
asg9
I1
sg10
(lp249
I1
aI1
asg12
(lp250
I249
aI439
assI48
(dp251
g2
I100
sg3
(lp252
I31
aI30
asg5
(lp253
g7
ag8
asg9
I0
sg10
(lp254
I0
aI0
asg12
(lp255
I310
aI318
assI49
(dp256
g2
I64
sg3
(lp257
I31
aI78
asg5
(lp258
g7
ag17
asg9
I1
sg10
(lp259
I1
aI0
asg12
(lp260
I354
aI303
assI50
(dp261
g2
I67
sg3
(lp262
I55
aI30
asg5
(lp263
g23
ag8
asg9
I0
sg10
(lp264
I0
aI1
asg12
(lp265
I327
aI364
assI51
(dp266
g2
I65
sg3
(lp267
I55
aI78
asg5
(lp268
g23
ag17
asg9
I1
sg10
(lp269
I1
aI1
asg12
(lp270
I335
aI351
assI52
(dp271
g2
I105
sg3
(lp272
I55
aI54
asg5
(lp273
g7
ag8
asg9
I0
sg10
(lp274
I0
aI0
asg12
(lp275
I312
aI408
assI53
(dp276
g2
I103
sg3
(lp277
I102
aI55
asg5
(lp278
g17
ag7
asg9
I1
sg10
(lp279
I0
aI1
asg12
(lp280
I407
aI332
assI54
(dp281
g2
I106
sg3
(lp282
I63
aI54
asg5
(lp283
g23
ag8
asg9
I0
sg10
(lp284
I0
aI1
asg12
(lp285
I327
aI438
assI55
(dp286
g2
I113
sg3
(lp287
I102
aI63
asg5
(lp288
g17
ag23
asg9
I1
sg10
(lp289
I1
aI1
asg12
(lp290
I463
aI351
assI56
(dp291
g2
I63
sg3
(lp292
I79
aI78
asg5
(lp293
g7
ag8
asg9
I1
sg10
(lp294
I0
aI0
asg12
(lp295
I410
aI330
assI57
(dp296
g2
I60
sg3
(lp297
I79
aI94
asg5
(lp298
g7
ag17
asg9
I0
sg10
(lp299
I1
aI0
asg12
(lp300
I432
aI313
assI58
(dp301
g2
I66
sg3
(lp302
I103
aI78
asg5
(lp303
g23
ag8
asg9
I0
sg10
(lp304
I0
aI1
asg12
(lp305
I402
aI350
assI59
(dp306
g2
I61
sg3
(lp307
I103
aI94
asg5
(lp308
g23
ag17
asg9
I1
sg10
(lp309
I1
aI1
asg12
(lp310
I437
aI353
assI60
(dp311
g2
I102
sg3
(lp312
I102
aI103
asg5
(lp313
g8
ag7
asg9
I1
sg10
(lp314
I0
aI0
asg12
(lp315
I416
aI418
assI61
(dp316
g2
I78
sg3
(lp317
I118
aI103
asg5
(lp318
g17
ag7
asg9
I0
sg10
(lp319
I0
aI1
asg12
(lp320
I423
aI464
assI62
(dp321
g2
I104
sg3
(lp322
I102
aI111
asg5
(lp323
g8
ag23
asg9
I1
sg10
(lp324
I1
aI0
asg12
(lp325
I450
aI429
assI63
(dp326
g2
I77
sg3
(lp327
I118
aI111
asg5
(lp328
g17
ag23
asg9
I0
sg10
(lp329
I1
aI1
asg12
(lp330
I463
aI435
assI64
(dp331
g2
I-1
sg3
(lp332
I44
aI43
aI62
aI131
aI132
aI47
aI134
aI135
aI136
aI63
aI138
aI139
asg5
(lp333
g8
ag7
ag17
ag23
ag8
ag7
ag17
ag23
ag8
ag7
ag17
ag23
asg9
I8
sg10
(lp334
I0
aI0
aI0
aI0
aI0
aI0
aI0
aI0
aI0
aI0
aI0
aI0
asg12
(lp335
I578
aI176
aI573
aI181
aI688
aI280
aI693
aI295
aI772
aI388
aI791
aI381
assI65
(dp336
g2
I-1
sg3
(lp337
I44
aI43
asg5
(lp338
g8
ag7
asg9
I0
sg10
(lp339
I0
aI0
asg12
(lp340
I514
aI124
assI66
(dp341
g2
I116
sg3
(lp342
I62
aI47
asg5
(lp343
g17
ag7
asg9
I1
sg10
(lp344
I0
aI1
asg12
(lp345
I519
aI264
assI67
(dp346
g2
I-1
sg3
(lp347
I131
aI132
asg5
(lp348
g23
ag8
asg9
I1
sg10
(lp349
I0
aI1
asg12
(lp350
I117
aI664
assI68
(dp351
g2
I-1
sg3
(lp352
I135
aI134
asg5
(lp353
g23
ag17
asg9
I0
sg10
(lp354
I1
aI1
asg12
(lp355
I233
aI663
assI69
(dp356
g2
I-1
sg3
(lp357
I44
asg5
(lp358
g8
asg9
I0
sg10
(lp359
I1
asg12
(lp360
I564
assI70
(dp361
g2
I-1
sg3
(lp362
I43
asg5
(lp363
g7
asg9
I0
sg10
(lp364
I1
asg12
(lp365
I158
assI71
(dp366
g2
I119
sg3
(lp367
I62
asg5
(lp368
g17
asg9
I0
sg10
(lp369
I1
asg12
(lp370
I555
assI72
(dp371
g2
I-1
sg3
(lp372
I131
asg5
(lp373
g23
asg9
I0
sg10
(lp374
I1
asg12
(lp375
I143
assI73
(dp376
g2
I-1
sg3
(lp377
I132
asg5
(lp378
g8
asg9
I0
sg10
(lp379
I0
asg12
(lp380
I606
assI74
(dp381
g2
I112
sg3
(lp382
I47
asg5
(lp383
g7
asg9
I0
sg10
(lp384
I0
asg12
(lp385
I220
assI75
(dp386
g2
I-1
sg3
(lp387
I134
asg5
(lp388
g17
asg9
I0
sg10
(lp389
I0
asg12
(lp390
I613
assI76
(dp391
g2
I-1
sg3
(lp392
I135
asg5
(lp393
g23
asg9
I0
sg10
(lp394
I0
asg12
(lp395
I231
assI77
(dp396
g2
I-1
sg3
(lp397
I136
aI131
aI138
aI144
aI135
aI146
aI148
aI139
aI150
asg5
(lp398
g8
ag7
ag17
ag8
ag7
ag17
ag8
ag7
ag17
asg9
I7
sg10
(lp399
I0
aI0
aI0
aI0
aI0
aI0
aI0
aI0
aI0
asg12
(lp400
I772
aI174
aI791
aI888
aI280
aI887
aI970
aI392
aI993
assI78
(dp401
g2
I-1
sg3
(lp402
I136
aI131
asg5
(lp403
g8
ag7
asg9
I0
sg10
(lp404
I0
aI0
asg12
(lp405
I708
aI104
assI79
(dp406
g2
I-1
sg3
(lp407
I135
aI138
asg5
(lp408
g7
ag17
asg9
I1
sg10
(lp409
I1
aI0
asg12
(lp410
I254
aI713
assI80
(dp411
g2
I-1
sg3
(lp412
I143
asg5
(lp413
g23
asg9
I0
sg10
(lp414
I0
asg12
(lp415
I129
assI81
(dp416
g2
I-1
sg3
(lp417
I146
aI147
asg5
(lp418
g17
ag23
asg9
I1
sg10
(lp419
I1
aI1
asg12
(lp420
I837
aI237
assI82
(dp421
g2
I-1
sg3
(lp422
I136
asg5
(lp423
g8
asg9
I0
sg10
(lp424
I1
asg12
(lp425
I732
assI83
(dp426
g2
I-1
sg3
(lp427
I131
asg5
(lp428
g7
asg9
I0
sg10
(lp429
I1
asg12
(lp430
I154
assI84
(dp431
g2
I-1
sg3
(lp432
I138
asg5
(lp433
g17
asg9
I0
sg10
(lp434
I1
asg12
(lp435
I757
assI85
(dp436
g2
I-1
sg3
(lp437
I143
asg5
(lp438
g23
asg9
I0
sg10
(lp439
I1
asg12
(lp440
I151
assI86
(dp441
g2
I-1
sg3
(lp442
I144
asg5
(lp443
g8
asg9
I0
sg10
(lp444
I0
asg12
(lp445
I826
assI87
(dp446
g2
I-1
sg3
(lp447
I135
asg5
(lp448
g7
asg9
I0
sg10
(lp449
I0
asg12
(lp450
I232
assI88
(dp451
g2
I-1
sg3
(lp452
I146
asg5
(lp453
g17
asg9
I0
sg10
(lp454
I0
asg12
(lp455
I831
assI89
(dp456
g2
I-1
sg3
(lp457
I147
asg5
(lp458
g23
asg9
I0
sg10
(lp459
I0
asg12
(lp460
I205
assI90
(dp461
g2
I115
sg3
(lp462
I62
aI63
asg5
(lp463
g8
ag7
asg9
I0
sg10
(lp464
I0
aI0
asg12
(lp465
I502
aI330
assI91
(dp466
g2
I114
sg3
(lp467
I63
aI110
asg5
(lp468
g7
ag17
asg9
I1
sg10
(lp469
I1
aI0
asg12
(lp470
I340
aI521
assI92
(dp471
g2
I118
sg3
(lp472
I62
aI155
asg5
(lp473
g8
ag23
asg9
I1
sg10
(lp474
I1
aI0
asg12
(lp475
I558
aI302
assI93
(dp476
g2
I-1
sg3
(lp477
I155
aI110
asg5
(lp478
g23
ag17
asg9
I0
sg10
(lp479
I1
aI1
asg12
(lp480
I359
aI561
assI94
(dp481
g2
I-1
sg3
(lp482
I134
aI155
asg5
(lp483
g8
ag7
asg9
I1
sg10
(lp484
I0
aI0
asg12
(lp485
I601
aI314
assI95
(dp486
g2
I-1
sg3
(lp487
I158
aI155
asg5
(lp488
g17
ag7
asg9
I1
sg10
(lp489
I0
aI1
asg12
(lp490
I623
aI362
assI96
(dp491
g2
I120
sg3
(lp492
I134
aI139
asg5
(lp493
g8
ag23
asg9
I1
sg10
(lp494
I1
aI0
asg12
(lp495
I634
aI303
assI97
(dp496
g2
I-1
sg3
(lp497
I158
aI139
asg5
(lp498
g17
ag23
asg9
I0
sg10
(lp499
I1
aI1
asg12
(lp500
I659
aI349
assI98
(dp501
g2
I-1
sg3
(lp502
I110
aI111
asg5
(lp503
g8
ag7
asg9
I1
sg10
(lp504
I0
aI0
asg12
(lp505
I518
aI401
assI99
(dp506
g2
I-1
sg3
(lp507
I126
aI111
asg5
(lp508
g17
ag7
asg9
I0
sg10
(lp509
I0
aI1
asg12
(lp510
I503
aI460
assI100
(dp511
g2
I-1
sg3
(lp512
I159
aI110
asg5
(lp513
g23
ag8
asg9
I0
sg10
(lp514
I0
aI1
asg12
(lp515
I413
aI536
assI101
(dp516
g2
I-1
sg3
(lp517
I159
aI126
asg5
(lp518
g23
ag17
asg9
I0
sg10
(lp519
I1
aI1
asg12
(lp520
I449
aI555
assI102
(dp521
g2
I-1
sg3
(lp522
I159
aI158
asg5
(lp523
g7
ag8
asg9
I1
sg10
(lp524
I0
aI0
asg12
(lp525
I424
aI626
assI103
(dp526
g2
I-1
sg3
(lp527
I174
aI159
asg5
(lp528
g17
ag7
asg9
I1
sg10
(lp529
I0
aI1
asg12
(lp530
I609
aI464
assI104
(dp531
g2
I-1
sg3
(lp532
I158
aI167
asg5
(lp533
g8
ag23
asg9
I1
sg10
(lp534
I1
aI0
asg12
(lp535
I648
aI409
assI105
(dp536
g2
I-1
sg3
(lp537
I174
aI167
asg5
(lp538
g17
ag23
asg9
I1
sg10
(lp539
I1
aI1
asg12
(lp540
I659
aI437
assI106
(dp541
g2
I-1
sg3
(lp542
I138
aI139
aI182
aI146
aI167
aI190
aI150
aI183
aI194
asg5
(lp543
g8
ag7
ag17
ag8
ag7
ag17
ag8
ag7
ag17
asg9
I2
sg10
(lp544
I0
aI0
aI0
aI0
aI0
aI0
aI0
aI0
aI0
asg12
(lp545
I778
aI392
aI777
aI888
aI476
aI873
aI992
aI568
aI981
assI107
(dp546
g2
I-1
sg3
(lp547
I139
aI138
asg5
(lp548
g7
ag8
asg9
I1
sg10
(lp549
I0
aI0
asg12
(lp550
I301
aI701
assI108
(dp551
g2
I-1
sg3
(lp552
I167
aI182
asg5
(lp553
g7
ag17
asg9
I1
sg10
(lp554
I1
aI0
asg12
(lp555
I438
aI717
assI109
(dp556
g2
I-1
sg3
(lp557
I151
asg5
(lp558
g23
asg9
I0
sg10
(lp559
I0
asg12
(lp560
I313
assI110
(dp561
g2
I-1
sg3
(lp562
I190
aI191
asg5
(lp563
g17
ag23
asg9
I0
sg10
(lp564
I1
aI1
asg12
(lp565
I837
aI459
assI111
(dp566
g2
I-1
sg3
(lp567
I138
asg5
(lp568
g8
asg9
I0
sg10
(lp569
I1
asg12
(lp570
I734
assI112
(dp571
g2
I-1
sg3
(lp572
I139
asg5
(lp573
g7
asg9
I0
sg10
(lp574
I1
asg12
(lp575
I346
assI113
(dp576
g2
I-1
sg3
(lp577
I182
asg5
(lp578
g17
asg9
I0
sg10
(lp579
I1
asg12
(lp580
I741
assI114
(dp581
g2
I-1
sg3
(lp582
I151
asg5
(lp583
g23
asg9
I0
sg10
(lp584
I1
asg12
(lp585
I341
assI115
(dp586
g2
I-1
sg3
(lp587
I146
asg5
(lp588
g8
asg9
I0
sg10
(lp589
I0
asg12
(lp590
I801
assI116
(dp591
g2
I-1
sg3
(lp592
I167
asg5
(lp593
g7
asg9
I0
sg10
(lp594
I0
asg12
(lp595
I416
assI117
(dp596
g2
I-1
sg3
(lp597
I190
asg5
(lp598
g17
asg9
I0
sg10
(lp599
I0
asg12
(lp600
I815
assI118
(dp601
g2
I-1
sg3
(lp602
I191
asg5
(lp603
g23
asg9
I0
sg10
(lp604
I0
asg12
(lp605
I409
assI119
(dp606
g2
I45
sg3
(lp607
I85
aI82
asg5
(lp608
g7
ag8
asg9
I1
sg10
(lp609
I0
aI0
asg12
(lp610
I510
aI130
assI120
(dp611
g2
I37
sg3
(lp612
I85
aI198
asg5
(lp613
g7
ag17
asg9
I0
sg10
(lp614
I1
aI0
asg12
(lp615
I540
aI125
assI121
(dp616
g2
I28
sg3
(lp617
I87
aI82
asg5
(lp618
g23
ag8
asg9
I1
sg10
(lp619
I0
aI1
asg12
(lp620
I515
aI138
assI122
(dp621
g2
I19
sg3
(lp622
I87
aI198
asg5
(lp623
g23
ag17
asg9
I0
sg10
(lp624
I1
aI1
asg12
(lp625
I535
aI155
assI123
(dp626
g2
I10
sg3
(lp627
I86
aI87
asg5
(lp628
g8
ag7
asg9
I0
sg10
(lp629
I0
aI0
asg12
(lp630
I218
aI526
assI124
(dp631
g2
I4
sg3
(lp632
I202
aI87
asg5
(lp633
g17
ag7
asg9
I1
sg10
(lp634
I0
aI1
asg12
(lp635
I225
aI564
assI125
(dp636
g2
I9
sg3
(lp637
I86
aI95
asg5
(lp638
g8
ag23
asg9
I1
sg10
(lp639
I1
aI0
asg12
(lp640
I250
aI505
assI126
(dp641
g2
I0
sg3
(lp642
I202
aI95
asg5
(lp643
g17
ag23
asg9
I1
sg10
(lp644
I1
aI1
asg12
(lp645
I249
aI549
assI127
(dp646
g2
I40
sg3
(lp647
I201
aI198
asg5
(lp648
g7
ag8
asg9
I1
sg10
(lp649
I0
aI0
asg12
(lp650
I601
aI124
assI128
(dp651
g2
I42
sg3
(lp652
I201
aI214
asg5
(lp653
g7
ag17
asg9
I0
sg10
(lp654
I1
aI0
asg12
(lp655
I664
aI103
assI129
(dp656
g2
I8
sg3
(lp657
I203
aI198
asg5
(lp658
g23
ag8
asg9
I0
sg10
(lp659
I0
aI1
asg12
(lp660
I623
aI136
assI130
(dp661
g2
I7
sg3
(lp662
I214
aI203
asg5
(lp663
g17
ag23
asg9
I1
sg10
(lp664
I1
aI1
asg12
(lp665
I143
aI637
assI131
(dp666
g2
I5
sg3
(lp667
I202
aI203
asg5
(lp668
g8
ag7
asg9
I0
sg10
(lp669
I0
aI0
asg12
(lp670
I214
aI612
assI132
(dp671
g2
I6
sg3
(lp672
I203
aI218
asg5
(lp673
g7
ag17
asg9
I1
sg10
(lp674
I1
aI0
asg12
(lp675
I648
aI225
assI133
(dp676
g2
I1
sg3
(lp677
I202
aI211
asg5
(lp678
g8
ag23
asg9
I1
sg10
(lp679
I1
aI0
asg12
(lp680
I246
aI613
assI134
(dp681
g2
I74
sg3
(lp682
I211
aI218
asg5
(lp683
g23
ag17
asg9
I1
sg10
(lp684
I1
aI1
asg12
(lp685
I645
aI249
assI135
(dp686
g2
I2
sg3
(lp687
I95
aI94
asg5
(lp688
g7
ag8
asg9
I1
sg10
(lp689
I0
aI0
asg12
(lp690
I526
aI316
assI136
(dp691
g2
I3
sg3
(lp692
I95
aI210
asg5
(lp693
g7
ag17
asg9
I0
sg10
(lp694
I1
aI0
asg12
(lp695
I556
aI305
assI137
(dp696
g2
I68
sg3
(lp697
I119
aI94
asg5
(lp698
g23
ag8
asg9
I0
sg10
(lp699
I0
aI1
asg12
(lp700
I531
aI344
assI138
(dp701
g2
I69
sg3
(lp702
I119
aI210
asg5
(lp703
g23
ag17
asg9
I1
sg10
(lp704
I1
aI1
asg12
(lp705
I559
aI339
assI139
(dp706
g2
I75
sg3
(lp707
I119
aI118
asg5
(lp708
g7
ag8
asg9
I1
sg10
(lp709
I0
aI0
asg12
(lp710
I514
aI428
assI140
(dp711
g2
I70
sg3
(lp712
I119
aI234
asg5
(lp713
g7
ag17
asg9
I1
sg10
(lp714
I1
aI0
asg12
(lp715
I542
aI431
assI141
(dp716
g2
I76
sg3
(lp717
I127
aI118
asg5
(lp718
g23
ag8
asg9
I1
sg10
(lp719
I0
aI1
asg12
(lp720
I523
aI456
assI142
(dp721
g2
I-1
sg3
(lp722
I127
aI234
asg5
(lp723
g23
ag17
asg9
I0
sg10
(lp724
I1
aI1
asg12
(lp725
I541
aI443
assI143
(dp726
g2
I71
sg3
(lp727
I211
aI210
asg5
(lp728
g7
ag8
asg9
I0
sg10
(lp729
I0
aI0
asg12
(lp730
I614
aI308
assI144
(dp731
g2
I79
sg3
(lp732
I211
aI226
asg5
(lp733
g7
ag17
asg9
I1
sg10
(lp734
I1
aI0
asg12
(lp735
I660
aI307
assI145
(dp736
g2
I72
sg3
(lp737
I235
aI210
asg5
(lp738
g23
ag8
asg9
I0
sg10
(lp739
I0
aI1
asg12
(lp740
I613
aI360
assI146
(dp741
g2
I80
sg3
(lp742
I235
aI226
asg5
(lp743
g23
ag17
asg9
I1
sg10
(lp744
I1
aI1
asg12
(lp745
I659
aI359
assI147
(dp746
g2
I86
sg3
(lp747
I235
aI234
asg5
(lp748
g7
ag8
asg9
I1
sg10
(lp749
I0
aI0
asg12
(lp750
I616
aI426
assI148
(dp751
g2
I82
sg3
(lp752
I235
aI250
asg5
(lp753
g7
ag17
asg9
I1
sg10
(lp754
I1
aI0
asg12
(lp755
I644
aI409
assI149
(dp756
g2
I73
sg3
(lp757
I234
aI243
asg5
(lp758
g8
ag23
asg9
I1
sg10
(lp759
I1
aI0
asg12
(lp760
I438
aI621
assI150
(dp761
g2
I-1
sg3
(lp762
I243
aI250
asg5
(lp763
g23
ag17
asg9
I0
sg10
(lp764
I1
aI1
asg12
(lp765
I665
aI455
assI151
(dp766
g2
I-1
sg3
(lp767
I214
aI217
aI227
aI218
aI265
aI267
aI226
aI269
aI271
asg5
(lp768
g8
ag7
ag23
ag8
ag7
ag23
ag8
ag7
ag23
asg9
I8
sg10
(lp769
I0
aI0
aI0
aI0
aI0
aI0
aI0
aI0
aI0
asg12
(lp770
I172
aI774
aI779
aI284
aI888
aI875
aI374
aI966
aI983
assI152
(dp771
g2
I94
sg3
(lp772
I214
aI217
asg5
(lp773
g8
ag7
asg9
I1
sg10
(lp774
I0
aI0
asg12
(lp775
I110
aI726
assI153
(dp776
g2
I-1
sg3
(lp777
I262
asg5
(lp778
g17
asg9
I0
sg10
(lp779
I0
asg12
(lp780
I103
assI154
(dp781
g2
I53
sg3
(lp782
I218
aI227
asg5
(lp783
g8
ag23
asg9
I0
sg10
(lp784
I1
aI0
asg12
(lp785
I242
aI709
assI155
(dp786
g2
I51
sg3
(lp787
I266
aI267
asg5
(lp788
g17
ag23
asg9
I1
sg10
(lp789
I1
aI1
asg12
(lp790
I235
aI847
assI156
(dp791
g2
I41
sg3
(lp792
I214
asg5
(lp793
g8
asg9
I0
sg10
(lp794
I1
asg12
(lp795
I160
assI157
(dp796
g2
I-1
sg3
(lp797
I217
asg5
(lp798
g7
asg9
I0
sg10
(lp799
I1
asg12
(lp800
I746
assI158
(dp801
g2
I-1
sg3
(lp802
I262
asg5
(lp803
g17
asg9
I0
sg10
(lp804
I1
asg12
(lp805
I161
assI159
(dp806
g2
I85
sg3
(lp807
I227
asg5
(lp808
g23
asg9
I0
sg10
(lp809
I1
asg12
(lp810
I765
assI160
(dp811
g2
I87
sg3
(lp812
I218
asg5
(lp813
g8
asg9
I0
sg10
(lp814
I0
asg12
(lp815
I212
assI161
(dp816
g2
I-1
sg3
(lp817
I265
asg5
(lp818
g7
asg9
I0
sg10
(lp819
I0
asg12
(lp820
I812
assI162
(dp821
g2
I93
sg3
(lp822
I266
asg5
(lp823
g17
asg9
I0
sg10
(lp824
I0
asg12
(lp825
I229
assI163
(dp826
g2
I90
sg3
(lp827
I267
asg5
(lp828
g23
asg9
I0
sg10
(lp829
I0
asg12
(lp830
I819
assI164
(dp831
g2
I-1
sg3
(lp832
I226
aI227
aI259
aI250
aI267
aI279
aI258
aI271
aI283
asg5
(lp833
g8
ag7
ag23
ag8
ag7
ag23
ag8
ag7
ag23
asg9
I3
sg10
(lp834
I0
aI0
aI0
aI0
aI0
aI0
aI0
aI0
aI0
asg12
(lp835
I374
aI796
aI797
aI466
aI868
aI873
aI580
aI974
aI985
assI165
(dp836
g2
I52
sg3
(lp837
I227
aI226
asg5
(lp838
g7
ag8
asg9
I0
sg10
(lp839
I0
aI0
asg12
(lp840
I708
aI330
assI166
(dp841
g2
I92
sg3
(lp842
I270
asg5
(lp843
g17
asg9
I0
sg10
(lp844
I0
asg12
(lp845
I302
assI167
(dp846
g2
I83
sg3
(lp847
I250
aI259
asg5
(lp848
g8
ag23
asg9
I0
sg10
(lp849
I1
aI0
asg12
(lp850
I454
aI715
assI168
(dp851
g2
I-1
sg3
(lp852
I278
aI279
asg5
(lp853
g17
ag23
asg9
I0
sg10
(lp854
I1
aI1
asg12
(lp855
I453
aI855
assI169
(dp856
g2
I84
sg3
(lp857
I226
asg5
(lp858
g8
asg9
I0
sg10
(lp859
I1
asg12
(lp860
I356
assI170
(dp861
g2
I88
sg3
(lp862
I227
asg5
(lp863
g7
asg9
I0
sg10
(lp864
I1
asg12
(lp865
I764
assI171
(dp866
g2
I91
sg3
(lp867
I270
asg5
(lp868
g17
asg9
I0
sg10
(lp869
I1
asg12
(lp870
I337
assI172
(dp871
g2
I-1
sg3
(lp872
I259
asg5
(lp873
g23
asg9
I0
sg10
(lp874
I1
asg12
(lp875
I737
assI173
(dp876
g2
I81
sg3
(lp877
I250
asg5
(lp878
g8
asg9
I0
sg10
(lp879
I0
asg12
(lp880
I408
assI174
(dp881
g2
I89
sg3
(lp882
I267
asg5
(lp883
g7
asg9
I0
sg10
(lp884
I0
asg12
(lp885
I828
assI175
(dp886
g2
I-1
sg3
(lp887
I278
asg5
(lp888
g17
asg9
I0
sg10
(lp889
I0
asg12
(lp890
I402
assI176
(dp891
g2
I-1
sg3
(lp892
I279
asg5
(lp893
g23
asg9
I0
sg10
(lp894
I0
asg12
(lp895
I809
assI177
(dp896
g2
I-1
sg3
(lp897
I127
aI126
asg5
(lp898
g7
ag8
asg9
I1
sg10
(lp899
I0
aI0
asg12
(lp900
I530
aI530
assI178
(dp901
g2
I-1
sg3
(lp902
I242
aI127
asg5
(lp903
g17
ag7
asg9
I1
sg10
(lp904
I0
aI1
asg12
(lp905
I527
aI548
assI179
(dp906
g2
I-1
sg3
(lp907
I175
aI126
asg5
(lp908
g23
ag8
asg9
I1
sg10
(lp909
I0
aI1
asg12
(lp910
I513
aI540
assI180
(dp911
g2
I-1
sg3
(lp912
I242
aI175
asg5
(lp913
g17
ag23
asg9
I1
sg10
(lp914
I1
aI1
asg12
(lp915
I565
aI551
assI181
(dp916
g2
I-1
sg3
(lp917
I175
aI174
asg5
(lp918
g7
ag8
asg9
I1
sg10
(lp919
I0
aI0
asg12
(lp920
I508
aI620
assI182
(dp921
g2
I-1
sg3
(lp922
I175
aI290
asg5
(lp923
g7
ag17
asg9
I1
sg10
(lp924
I1
aI0
asg12
(lp925
I554
aI605
assI183
(dp926
g2
I-1
sg3
(lp927
I183
aI174
asg5
(lp928
g23
ag8
asg9
I0
sg10
(lp929
I0
aI1
asg12
(lp930
I505
aI658
assI184
(dp931
g2
I-1
sg3
(lp932
I183
aI290
asg5
(lp933
g23
ag17
asg9
I0
sg10
(lp934
I1
aI1
asg12
(lp935
I561
aI641
assI185
(dp936
g2
I-1
sg3
(lp937
I242
aI243
asg5
(lp938
g8
ag7
asg9
I1
sg10
(lp939
I0
aI0
asg12
(lp940
I532
aI628
assI186
(dp941
g2
I-1
sg3
(lp942
I243
aI258
asg5
(lp943
g7
ag17
asg9
I1
sg10
(lp944
I1
aI0
asg12
(lp945
I638
aI509
assI187
(dp946
g2
I-1
sg3
(lp947
I242
aI291
asg5
(lp948
g8
ag23
asg9
I1
sg10
(lp949
I1
aI0
asg12
(lp950
I552
aI623
assI188
(dp951
g2
I-1
sg3
(lp952
I291
aI258
asg5
(lp953
g23
ag17
asg9
I1
sg10
(lp954
I1
aI1
asg12
(lp955
I635
aI537
assI189
(dp956
g2
I-1
sg3
(lp957
I290
aI291
asg5
(lp958
g8
ag7
asg9
I1
sg10
(lp959
I0
aI0
asg12
(lp960
I618
aI624
assI190
(dp961
g2
I-1
sg3
(lp962
I291
aI306
asg5
(lp963
g7
ag17
asg9
I0
sg10
(lp964
I1
aI0
asg12
(lp965
I662
aI619
assI191
(dp966
g2
I-1
sg3
(lp967
I290
aI299
asg5
(lp968
g8
ag23
asg9
I1
sg10
(lp969
I1
aI0
asg12
(lp970
I658
aI617
assI192
(dp971
g2
I-1
sg3
(lp972
I299
aI306
asg5
(lp973
g23
ag17
asg9
I0
sg10
(lp974
I1
aI1
asg12
(lp975
I645
aI653
assI193
(dp976
g2
I-1
sg3
(lp977
I182
aI183
aI314
aI190
aI299
aI322
aI194
aI315
aI326
asg5
(lp978
g8
ag7
ag17
ag8
ag7
ag17
ag8
ag7
ag17
asg9
I5
sg10
(lp979
I0
aI0
aI0
aI0
aI0
aI0
aI0
aI0
aI0
asg12
(lp980
I790
aI568
aI791
aI888
aI676
aI893
aI968
aI772
aI989
assI194
(dp981
g2
I-1
sg3
(lp982
I183
aI182
asg5
(lp983
g7
ag8
asg9
I0
sg10
(lp984
I0
aI0
asg12
(lp985
I516
aI722
assI195
(dp986
g2
I-1
sg3
(lp987
I299
aI314
asg5
(lp988
g7
ag17
asg9
I0
sg10
(lp989
I1
aI0
asg12
(lp990
I634
aI731
assI196
(dp991
g2
I-1
sg3
(lp992
I195
asg5
(lp993
g23
asg9
I0
sg10
(lp994
I0
asg12
(lp995
I517
assI197
(dp996
g2
I-1
sg3
(lp997
I323
aI322
asg5
(lp998
g23
ag17
asg9
I0
sg10
(lp999
I1
aI1
asg12
(lp1000
I655
aI833
assI198
(dp1001
g2
I-1
sg3
(lp1002
I182
asg5
(lp1003
g8
asg9
I0
sg10
(lp1004
I1
asg12
(lp1005
I736
assI199
(dp1006
g2
I-1
sg3
(lp1007
I183
asg5
(lp1008
g7
asg9
I0
sg10
(lp1009
I1
asg12
(lp1010
I552
assI200
(dp1011
g2
I-1
sg3
(lp1012
I314
asg5
(lp1013
g17
asg9
I0
sg10
(lp1014
I1
asg12
(lp1015
I761
assI201
(dp1016
g2
I-1
sg3
(lp1017
I195
asg5
(lp1018
g23
asg9
I0
sg10
(lp1019
I1
asg12
(lp1020
I549
assI202
(dp1021
g2
I-1
sg3
(lp1022
I190
asg5
(lp1023
g8
asg9
I0
sg10
(lp1024
I0
asg12
(lp1025
I822
assI203
(dp1026
g2
I-1
sg3
(lp1027
I299
asg5
(lp1028
g7
asg9
I0
sg10
(lp1029
I0
asg12
(lp1030
I626
assI204
(dp1031
g2
I-1
sg3
(lp1032
I322
asg5
(lp1033
g17
asg9
I0
sg10
(lp1034
I0
asg12
(lp1035
I805
assI205
(dp1036
g2
I-1
sg3
(lp1037
I323
asg5
(lp1038
g23
asg9
I0
sg10
(lp1039
I0
asg12
(lp1040
I615
assI206
(dp1041
g2
I-1
sg3
(lp1042
I258
aI259
aI315
aI306
aI279
aI335
aI314
aI283
aI339
asg5
(lp1043
g8
ag7
ag23
ag8
ag7
ag23
ag8
ag7
ag23
asg9
I3
sg10
(lp1044
I0
aI0
aI0
aI0
aI0
aI0
aI0
aI0
aI0
asg12
(lp1045
I580
aI788
aI767
aI682
aI892
aI865
aI786
aI976
aI993
assI207
(dp1046
g2
I-1
sg3
(lp1047
I259
aI258
asg5
(lp1048
g7
ag8
asg9
I1
sg10
(lp1049
I0
aI0
asg12
(lp1050
I702
aI514
assI208
(dp1051
g2
I-1
sg3
(lp1052
I282
asg5
(lp1053
g17
asg9
I0
sg10
(lp1054
I0
asg12
(lp1055
I507
assI209
(dp1056
g2
I-1
sg3
(lp1057
I315
aI306
asg5
(lp1058
g23
ag8
asg9
I0
sg10
(lp1059
I0
aI1
asg12
(lp1060
I725
aI642
assI210
(dp1061
g2
I-1
sg3
(lp1062
I334
aI335
asg5
(lp1063
g17
ag23
asg9
I0
sg10
(lp1064
I1
aI1
asg12
(lp1065
I641
aI833
assI211
(dp1066
g2
I-1
sg3
(lp1067
I258
asg5
(lp1068
g8
asg9
I0
sg10
(lp1069
I1
asg12
(lp1070
I564
assI212
(dp1071
g2
I-1
sg3
(lp1072
I259
asg5
(lp1073
g7
asg9
I0
sg10
(lp1074
I1
asg12
(lp1075
I738
assI213
(dp1076
g2
I-1
sg3
(lp1077
I282
asg5
(lp1078
g17
asg9
I0
sg10
(lp1079
I1
asg12
(lp1080
I561
assI214
(dp1081
g2
I-1
sg3
(lp1082
I315
asg5
(lp1083
g23
asg9
I0
sg10
(lp1084
I1
asg12
(lp1085
I755
assI215
(dp1086
g2
I55
sg3
(lp1087
I306
asg5
(lp1088
g8
asg9
I0
sg10
(lp1089
I0
asg12
(lp1090
I630
assI216
(dp1091
g2
I-1
sg3
(lp1092
I279
asg5
(lp1093
g7
asg9
I0
sg10
(lp1094
I0
asg12
(lp1095
I801
assI217
(dp1096
g2
I-1
sg3
(lp1097
I334
asg5
(lp1098
g17
asg9
I0
sg10
(lp1099
I0
asg12
(lp1100
I621
assI218
(dp1101
g2
I-1
sg3
(lp1102
I335
asg5
(lp1103
g23
asg9
I0
sg10
(lp1104
I0
asg12
(lp1105
I831
assI219
(dp1106
g2
I-1
sg3
(lp1107
I314
aI315
aI322
aI335
aI326
aI339
asg5
(lp1108
g8
ag7
ag8
ag7
ag8
ag7
asg9
I1
sg10
(lp1109
I0
aI0
aI0
aI0
aI0
aI0
asg12
(lp1110
I786
aI772
aI882
aI894
aI980
aI972
assI220
(dp1111
g2
I-1
sg3
(lp1112
I314
aI315
asg5
(lp1113
g8
ag7
asg9
I0
sg10
(lp1114
I0
aI0
asg12
(lp1115
I722
aI712
assI221
(dp1116
g2
I-1
sg3
(lp1117
I338
asg5
(lp1118
g17
asg9
I0
sg10
(lp1119
I0
asg12
(lp1120
I729
assI222
(dp1121
g2
I-1
sg3
(lp1122
I327
asg5
(lp1123
g23
asg9
I0
sg10
(lp1124
I0
asg12
(lp1125
I707
assI223
(dp1126
g2
I-1
sg3
(lp1127
I346
aI347
asg5
(lp1128
g17
ag23
asg9
I0
sg10
(lp1129
I1
aI1
asg12
(lp1130
I845
aI841
assI224
(dp1131
g2
I-1
sg3
(lp1132
I314
asg5
(lp1133
g8
asg9
I0
sg10
(lp1134
I1
asg12
(lp1135
I754
assI225
(dp1136
g2
I-1
sg3
(lp1137
I315
asg5
(lp1138
g7
asg9
I0
sg10
(lp1139
I1
asg12
(lp1140
I756
assI226
(dp1141
g2
I-1
sg3
(lp1142
I338
asg5
(lp1143
g17
asg9
I0
sg10
(lp1144
I1
asg12
(lp1145
I753
assI227
(dp1146
g2
I-1
sg3
(lp1147
I327
asg5
(lp1148
g23
asg9
I0
sg10
(lp1149
I1
asg12
(lp1150
I755
assI228
(dp1151
g2
I-1
sg3
(lp1152
I322
asg5
(lp1153
g8
asg9
I0
sg10
(lp1154
I0
asg12
(lp1155
I810
assI229
(dp1156
g2
I-1
sg3
(lp1157
I335
asg5
(lp1158
g7
asg9
I0
sg10
(lp1159
I0
asg12
(lp1160
I810
assI230
(dp1161
g2
I-1
sg3
(lp1162
I346
asg5
(lp1163
g17
asg9
I0
sg10
(lp1164
I0
asg12
(lp1165
I811
assI231
(dp1166
g2
I-1
sg3
(lp1167
I347
asg5
(lp1168
g23
asg9
I0
sg10
(lp1169
I0
asg12
(lp1170
I817
ass.