(dp0
I0
(dp1
S'startingBlock'
p2
I1
sS'endingBlock'
p3
I9
sS'direction'
p4
S'N'
p5
sS'number'
p6
I1
sS'name'
p7
S'Paulin Avenue'
p8
ssI1
(dp9
g2
I1
sg3
I9
sg4
S'E'
p10
sg6
I1
sg7
S'1st Street'
p11
ssI2
(dp12
g2
I1
sg3
I7
sg4
g10
sg6
I2
sg7
S'2nd Street'
p13
ssI3
(dp14
g2
I1
sg3
I9
sg4
g10
sg6
I3
sg7
S'Orme Street'
p15
ssI4
(dp16
g2
I1
sg3
I7
sg4
S'W'
p17
sg6
I4
sg7
S'4th Street'
p18
ssI5
(dp19
g2
I1
sg3
I9
sg4
g17
sg6
I5
sg7
S'5th Street'
p20
ssI6
(dp21
g2
I1
sg3
I9
sg4
g17
sg6
I7
sg7
S'7th Street'
p22
ssI7
(dp23
g2
I1
sg3
I9
sg4
g17
sg6
I9
sg7
S'9th Street'
p24
ssI8
(dp25
g2
I1
sg3
I5
sg4
g5
sg6
I2
sg7
S'Darien Avenue'
p26
ssI9
(dp27
g2
I1
sg3
I9
sg4
g5
sg6
I3
sg7
S'Bayou La Batre Avenue'
p28
ssI10
(dp29
g2
I3
sg3
I7
sg4
g17
sg6
I6
sg7
S'6th Street'
p30
ssI11
(dp31
g2
I1
sg3
I7
sg4
S'S'
p32
sg6
I4
sg7
S'Hearon Avenue'
p33
ssI12
(dp34
g2
I1
sg3
I9
sg4
g32
sg6
I5
sg7
S'Gager Avenue'
p35
ssI13
(dp36
g2
I1
sg3
I7
sg4
g32
sg6
I6
sg7
S'Gallup Avenue'
p37
ssI14
(dp38
g2
I1
sg3
I9
sg4
g32
sg6
I7
sg7
S'Port Alsworth Avenue'
p39
ssI15
(dp40
g2
I1
sg3
I9
sg4
g32
sg6
I9
sg7
S'Brownley Avenue'
p41
ss.